; ModuleID = '54/947.c'
source_filename = "54/947.c"
target datalayout = "e-m:e-p270:32:32-p271:32:32-p272:64:64-i64:64-f80:128-n8:16:32:64-S128"
target triple = "x86_64-pc-linux-gnu"

@.str = private unnamed_addr constant [5 x i8] c"%d%d\00", align 1
@.str.1 = private unnamed_addr constant [4 x i8] c"%d\0A\00", align 1

; Function Attrs: noinline nounwind uwtable
define dso_local void @main() #0 {
  %1 = alloca i32, align 4
  %2 = alloca i32, align 4
  %3 = call i32 (i8*, ...) @__isoc99_scanf(i8* getelementptr inbounds ([5 x i8], [5 x i8]* @.str, i64 0, i64 0), i32* %1, i32* %2)
  %4 = load i32, i32* %1, align 4
  %5 = load i32, i32* %2, align 4
  call void @apple(i32 %4, i32 %5)
  ret void
}

declare dso_local i32 @__isoc99_scanf(i8*, ...) #1

; Function Attrs: noinline nounwind uwtable
define dso_local void @apple(i32 %0, i32 %1) #0 {
  %3 = alloca i32, align 4
  %4 = alloca i32, align 4
  %5 = alloca i32, align 4
  %6 = alloca i32, align 4
  %7 = alloca i32, align 4
  %8 = alloca i32, align 4
  store i32 %0, i32* %3, align 4
  store i32 %1, i32* %4, align 4
  store i32 1, i32* %5, align 4
  store i32 2, i32* %7, align 4
  store i32 1, i32* %8, align 4
  %9 = load i32, i32* %3, align 4
  %10 = load i32, i32* %4, align 4
  %11 = add nsw i32 %9, %10
  store i32 %11, i32* %6, align 4
  br label %12

12:                                               ; preds = %43, %2
  %13 = load i32, i32* %7, align 4
  %14 = load i32, i32* %3, align 4
  %15 = icmp sle i32 %13, %14
  br i1 %15, label %16, label %44

16:                                               ; preds = %12
  %17 = load i32, i32* %6, align 4
  %18 = load i32, i32* %3, align 4
  %19 = sub nsw i32 %18, 1
  %20 = srem i32 %17, %19
  %21 = icmp eq i32 %20, 0
  br i1 %21, label %22, label %34

22:                                               ; preds = %16
  %23 = load i32, i32* %6, align 4
  %24 = load i32, i32* %3, align 4
  %25 = sub nsw i32 %24, 1
  %26 = sdiv i32 %23, %25
  store i32 %26, i32* %5, align 4
  %27 = load i32, i32* %5, align 4
  %28 = load i32, i32* %3, align 4
  %29 = mul nsw i32 %27, %28
  %30 = load i32, i32* %4, align 4
  %31 = add nsw i32 %29, %30
  store i32 %31, i32* %6, align 4
  %32 = load i32, i32* %7, align 4
  %33 = add nsw i32 %32, 1
  store i32 %33, i32* %7, align 4
  br label %43

34:                                               ; preds = %16
  %35 = load i32, i32* %8, align 4
  %36 = add nsw i32 %35, 1
  store i32 %36, i32* %8, align 4
  %37 = load i32, i32* %8, align 4
  store i32 %37, i32* %5, align 4
  %38 = load i32, i32* %5, align 4
  %39 = load i32, i32* %3, align 4
  %40 = mul nsw i32 %38, %39
  %41 = load i32, i32* %4, align 4
  %42 = add nsw i32 %40, %41
  store i32 %42, i32* %6, align 4
  store i32 2, i32* %7, align 4
  br label %43

43:                                               ; preds = %34, %22
  br label %12

44:                                               ; preds = %12
  %45 = load i32, i32* %6, align 4
  %46 = call i32 (i8*, ...) @printf(i8* getelementptr inbounds ([4 x i8], [4 x i8]* @.str.1, i64 0, i64 0), i32 %45)
  ret void
}

declare dso_local i32 @printf(i8*, ...) #1


!llvm.module.flags = !{!0}
!llvm.ident = !{!1}

!0 = !{i32 1, !"wchar_size", i32 4}
!1 = !{!"clang version 10.0.0-4ubuntu1 "}
