; ModuleID = 'source-C-CXX/53/947.c'
source_filename = "source-C-CXX/53/947.c"
target datalayout = "e-m:e-p270:32:32-p271:32:32-p272:64:64-i64:64-f80:128-n8:16:32:64-S128"
target triple = "x86_64-pc-linux-gnu"

@.str = private unnamed_addr constant [5 x i8] c"%d%d\00", align 1
@.str.1 = private unnamed_addr constant [4 x i8] c"%d\0A\00", align 1

; Function Attrs: nofree nounwind sspstrong uwtable
define dso_local void @main() local_unnamed_addr #0 {
  %1 = alloca i32, align 4
  %2 = alloca i32, align 4
  %3 = bitcast i32* %1 to i8*
  call void @llvm.lifetime.start.p0i8(i64 4, i8* nonnull %3) #3
  %4 = bitcast i32* %2 to i8*
  call void @llvm.lifetime.start.p0i8(i64 4, i8* nonnull %4) #3
  %5 = call i32 (i8*, ...) @__isoc99_scanf(i8* getelementptr inbounds ([5 x i8], [5 x i8]* @.str, i64 0, i64 0), i32* nonnull %1, i32* nonnull %2)
  %6 = load i32, i32* %1, align 4, !tbaa !5
  %7 = load i32, i32* %2, align 4, !tbaa !5
  %8 = add nsw i32 %6, -1
  %9 = add nsw i32 %7, %6
  %10 = icmp slt i32 %6, 2
  br i1 %10, label %26, label %11

11:                                               ; preds = %0, %11
  %12 = phi i32 [ %24, %11 ], [ %9, %0 ]
  %13 = phi i32 [ %22, %11 ], [ 1, %0 ]
  %14 = phi i32 [ %21, %11 ], [ 2, %0 ]
  %15 = srem i32 %12, %8
  %16 = sdiv i32 %12, %8
  %17 = icmp eq i32 %15, 0
  %18 = add nsw i32 %14, 1
  %19 = add nsw i32 %13, 1
  %20 = select i1 %17, i32 %16, i32 %19
  %21 = select i1 %17, i32 %18, i32 2
  %22 = select i1 %17, i32 %13, i32 %19
  %23 = mul nsw i32 %20, %6
  %24 = add nsw i32 %23, %7
  %25 = icmp sgt i32 %21, %6
  br i1 %25, label %26, label %11, !llvm.loop !9

26:                                               ; preds = %11, %0
  %27 = phi i32 [ %9, %0 ], [ %24, %11 ]
  %28 = call i32 (i8*, ...) @printf(i8* nonnull dereferenceable(1) getelementptr inbounds ([4 x i8], [4 x i8]* @.str.1, i64 0, i64 0), i32 %27) #3
  call void @llvm.lifetime.end.p0i8(i64 4, i8* nonnull %4) #3
  call void @llvm.lifetime.end.p0i8(i64 4, i8* nonnull %3) #3
  ret void
}

; Function Attrs: argmemonly mustprogress nofree nosync nounwind willreturn
declare void @llvm.lifetime.start.p0i8(i64 immarg, i8* nocapture) #1

; Function Attrs: nofree nounwind
declare noundef i32 @__isoc99_scanf(i8* nocapture noundef readonly, ...) local_unnamed_addr #2

; Function Attrs: nofree nounwind sspstrong uwtable
define dso_local void @apple(i32 %0, i32 %1) local_unnamed_addr #0 {
  %3 = add nsw i32 %0, -1
  %4 = add nsw i32 %0, %1
  %5 = icmp slt i32 %0, 2
  br i1 %5, label %21, label %6

6:                                                ; preds = %2, %6
  %7 = phi i32 [ %19, %6 ], [ %4, %2 ]
  %8 = phi i32 [ %17, %6 ], [ 1, %2 ]
  %9 = phi i32 [ %16, %6 ], [ 2, %2 ]
  %10 = srem i32 %7, %3
  %11 = sdiv i32 %7, %3
  %12 = icmp eq i32 %10, 0
  %13 = add nsw i32 %9, 1
  %14 = add nsw i32 %8, 1
  %15 = select i1 %12, i32 %11, i32 %14
  %16 = select i1 %12, i32 %13, i32 2
  %17 = select i1 %12, i32 %8, i32 %14
  %18 = mul nsw i32 %15, %0
  %19 = add nsw i32 %18, %1
  %20 = icmp sgt i32 %16, %0
  br i1 %20, label %21, label %6, !llvm.loop !9

21:                                               ; preds = %6, %2
  %22 = phi i32 [ %4, %2 ], [ %19, %6 ]
  %23 = tail call i32 (i8*, ...) @printf(i8* nonnull dereferenceable(1) getelementptr inbounds ([4 x i8], [4 x i8]* @.str.1, i64 0, i64 0), i32 %22)
  ret void
}

; Function Attrs: argmemonly mustprogress nofree nosync nounwind willreturn
declare void @llvm.lifetime.end.p0i8(i64 immarg, i8* nocapture) #1

; Function Attrs: nofree nounwind
declare noundef i32 @printf(i8* nocapture noundef readonly, ...) local_unnamed_addr #2


!llvm.module.flags = !{!0, !1, !2, !3}
!llvm.ident = !{!4}

!0 = !{i32 1, !"wchar_size", i32 4}
!1 = !{i32 7, !"PIC Level", i32 2}
!2 = !{i32 7, !"PIE Level", i32 2}
!3 = !{i32 7, !"uwtable", i32 1}
!4 = !{!"clang version 13.0.0"}
!5 = !{!6, !6, i64 0}
!6 = !{!"int", !7, i64 0}
!7 = !{!"omnipotent char", !8, i64 0}
!8 = !{!"Simple C/C++ TBAA"}
!9 = distinct !{!9, !10}
!10 = !{!"llvm.loop.mustprogress"}
